Certificate:
    Data:
        Version: 3 (0x2)
        Serial Number:
            e9:89:13:30:6d:ed:92:84
    Signature Algorithm: sha256WithRSAEncryption
        Issuer: C=RU, ST=Russia, L=Moscow, O=Yandex, OU=neh, CN=localhost/emailAddress=root@localhost
        Validity
            Not Before: Nov 10 15:39:06 2016 GMT
            Not After : Jan 27 15:39:06 2025 GMT
        Subject: C=RU, ST=Russia, L=Moscow, O=Yandex, OU=neh, CN=localhost/emailAddress=root@localhost
        Subject Public Key Info:
            Public Key Algorithm: rsaEncryption
                Public-Key: (2048 bit)
                Modulus:
                    00:d9:3f:43:26:53:26:d1:81:0b:0d:19:bb:51:80:
                    93:0e:60:9e:8a:18:86:0f:e0:20:43:46:82:6f:62:
                    92:86:f6:3d:33:16:1a:4d:2e:70:27:b9:04:3d:82:
                    42:ac:e2:33:b6:b6:eb:e1:17:b8:58:b3:a7:42:59:
                    e3:b4:c1:01:f5:a2:90:95:de:a2:c7:fa:e4:ac:bb:
                    b9:93:59:7b:81:34:49:8d:aa:70:fd:4e:86:eb:9b:
                    9e:b8:d6:6a:ee:ca:79:73:ff:6c:2a:06:d0:15:dd:
                    da:65:53:ab:82:67:82:13:a8:9d:99:bc:4d:f6:1d:
                    52:7a:e4:02:22:9b:a7:fd:36:0a:cc:ad:70:1f:0e:
                    42:98:1e:21:70:0a:91:a3:62:35:5a:68:79:43:a1:
                    8a:57:ae:65:4b:58:84:a4:0f:75:47:af:2c:dd:a8:
                    ae:25:38:56:91:ec:d0:c6:05:41:e1:a8:ba:de:0b:
                    7d:41:33:f0:76:df:1d:a4:60:23:5c:f2:a0:d5:f7:
                    bc:71:40:90:26:29:f9:a5:1f:1c:f6:31:48:cc:a3:
                    99:01:96:8c:76:3f:65:76:e0:72:6d:ad:a5:1c:1a:
                    d9:1c:17:3b:fa:7d:92:e2:30:40:a4:b3:dd:7a:df:
                    7f:96:ef:ee:bd:96:78:30:6d:60:a2:4b:0d:1d:c2:
                    07:99
                Exponent: 65537 (0x10001)
        X509v3 extensions:
            X509v3 Subject Key Identifier: 
                DA:4A:B6:82:45:1F:8E:06:71:C5:69:2B:D9:78:D0:62:03:BB:C2:01
            X509v3 Authority Key Identifier: 
                keyid:DA:4A:B6:82:45:1F:8E:06:71:C5:69:2B:D9:78:D0:62:03:BB:C2:01

            X509v3 Basic Constraints: 
                CA:TRUE
    Signature Algorithm: sha256WithRSAEncryption
         72:e5:6e:8b:a1:90:2b:a5:32:f1:8b:5c:c9:a4:65:f4:22:70:
         50:b3:d5:00:c6:15:cc:4d:25:35:81:39:41:74:56:6b:65:47:
         3e:69:4b:7a:2a:f1:9f:3c:30:77:7a:b2:95:d9:e3:78:25:f0:
         f6:4f:0b:a2:2f:de:ae:4e:ed:e7:94:8f:22:0d:cb:94:8c:a9:
         70:87:e6:b6:a9:39:60:69:59:75:c6:d7:48:e8:d2:a1:89:ce:
         db:5c:20:c9:e5:39:2b:76:0f:5a:12:af:f9:2f:f4:41:ef:59:
         64:32:81:bf:dc:ad:8d:a3:00:e1:25:fa:83:03:1e:47:75:2f:
         a1:79:2f:08:a8:04:80:b2:ea:25:18:ae:88:c7:61:12:06:7f:
         28:9d:5d:0a:df:06:52:42:bf:03:23:bb:de:85:be:a2:88:bc:
         21:6a:6b:c1:1a:88:46:a3:0b:50:b9:f1:6a:5b:13:a1:5d:8c:
         2b:29:74:77:05:e2:fc:35:72:5f:25:47:56:90:2c:e1:c4:de:
         16:fb:cb:61:10:1e:9c:69:db:ce:7e:7b:af:f4:80:50:f4:6a:
         81:30:cf:4a:10:73:f6:11:86:20:ee:d3:de:02:64:4a:1b:ae:
         88:27:c3:51:e6:bd:68:5d:a7:73:77:ef:67:95:75:33:c5:e0:
         3d:04:05:e6
-----BEGIN CERTIFICATE-----
MIID1zCCAr+gAwIBAgIJAOmJEzBt7ZKEMA0GCSqGSIb3DQEBCwUAMIGBMQswCQYD
VQQGEwJSVTEPMA0GA1UECAwGUnVzc2lhMQ8wDQYDVQQHDAZNb3Njb3cxDzANBgNV
BAoMBllhbmRleDEMMAoGA1UECwwDbmVoMRIwEAYDVQQDDAlsb2NhbGhvc3QxHTAb
BgkqhkiG9w0BCQEWDnJvb3RAbG9jYWxob3N0MB4XDTE2MTExMDE1MzkwNloXDTI1
MDEyNzE1MzkwNlowgYExCzAJBgNVBAYTAlJVMQ8wDQYDVQQIDAZSdXNzaWExDzAN
BgNVBAcMBk1vc2NvdzEPMA0GA1UECgwGWWFuZGV4MQwwCgYDVQQLDANuZWgxEjAQ
BgNVBAMMCWxvY2FsaG9zdDEdMBsGCSqGSIb3DQEJARYOcm9vdEBsb2NhbGhvc3Qw
ggEiMA0GCSqGSIb3DQEBAQUAA4IBDwAwggEKAoIBAQDZP0MmUybRgQsNGbtRgJMO
YJ6KGIYP4CBDRoJvYpKG9j0zFhpNLnAnuQQ9gkKs4jO2tuvhF7hYs6dCWeO0wQH1
opCV3qLH+uSsu7mTWXuBNEmNqnD9Tobrm5641mruynlz/2wqBtAV3dplU6uCZ4IT
qJ2ZvE32HVJ65AIim6f9NgrMrXAfDkKYHiFwCpGjYjVaaHlDoYpXrmVLWISkD3VH
ryzdqK4lOFaR7NDGBUHhqLreC31BM/B23x2kYCNc8qDV97xxQJAmKfmlHxz2MUjM
o5kBlox2P2V24HJtraUcGtkcFzv6fZLiMECks91633+W7+69lngwbWCiSw0dwgeZ
AgMBAAGjUDBOMB0GA1UdDgQWBBTaSraCRR+OBnHFaSvZeNBiA7vCATAfBgNVHSME
GDAWgBTaSraCRR+OBnHFaSvZeNBiA7vCATAMBgNVHRMEBTADAQH/MA0GCSqGSIb3
DQEBCwUAA4IBAQBy5W6LoZArpTLxi1zJpGX0InBQs9UAxhXMTSU1gTlBdFZrZUc+
aUt6KvGfPDB3erKV2eN4JfD2TwuiL96uTu3nlI8iDcuUjKlwh+a2qTlgaVl1xtdI
6NKhic7bXCDJ5Tkrdg9aEq/5L/RB71lkMoG/3K2NowDhJfqDAx5HdS+heS8IqASA
suolGK6Ix2ESBn8onV0K3wZSQr8DI7vehb6iiLwhamvBGohGowtQufFqWxOhXYwr
KXR3BeL8NXJfJUdWkCzhxN4W+8thEB6cadvOfnuv9IBQ9GqBMM9KEHP2EYYg7tPe
AmRKG66IJ8NR5r1oXadzd+9nlXUzxeA9BAXm
-----END CERTIFICATE-----
